(dp0
S'Buffer EB'
p1
(dp2
S'reagents'
p3
(lp4
(dp5
S'volume'
p6
S'500 mL'
p7
sS'name'
p8
S'dH2O'
p9
sa(dp10
S'concentration'
p11
S'10 mM'
p12
sg8
S'Tris-Cl'
p13
sasS'name'
p14
S'Buffer EB'
p15
sS'instructions'
p16
S'mix'
p17
ssS'YPD'
p18
(dp19
S'reagents'
p20
(lp21
(dp22
S'volume'
p23
S'1 L'
p24
sS'name'
p25
S'dH2O'
p26
sasS'name'
p27
g18
sS'instructions'
p28
S'mix and sterile filter'
p29
ss.