(dp0
S'PlasmidTemplate2'
p1
(dp2
S'name'
p3
g1
sS'sequence'
p4
S'ATCGATCGATCGATCGATCGATCGGGATCCATCGATCGATCGATCGATCGATCGATCG'
p5
sS'material'
p6
S'dsDNA'
p7
sS'mass'
p8
S'200 ng'
p9
sS'codon_set'
p10
S'standard'
p11
sS'owner'
p12
S'PVH'
p13
ssS'PlasmidTemplate'
p14
(dp15
g3
g14
sg4
S'ATCGATCGATCGATCGATCGATCGGGATCCATCGATCGATCGATCGATCGATCGATCG'
p16
sg6
S'dsDNA'
p17
sg8
S'100 ng'
p18
sg10
S'standard'
p19
sg12
S'PVH'
p20
ss.