(dp0
S'PlasmidTemplate2'
p1
(dp2
S'name'
p3
g1
sS'sequence'
p4
S'ATCGATCGATCGATCGATCGATCGGGATCCATCGATCGATCGATCGATCGATCGATCG'
p5
sS'material'
p6
S'dsDNA'
p7
sS'shape'
p8
S'circular'
p9
sS'mass'
p10
S'200 ng'
p11
sS'codon_set'
p12
S'standard'
p13
sS'owner'
p14
S'PVH'
p15
ssS'PlasmidTemplate'
p16
(dp17
g3
g16
sg4
S'ATCGATCGATCGATCGATCGATCGGGATCCATCGATCGATCGATCGATCGATCGATCG'
p18
sg6
S'dsDNA'
p19
sg8
S'linear'
p20
sg10
S'100 ng'
p21
sg12
S'standard'
p22
sg14
S'PVH'
p23
ss.