(dp0
S'PlasmidTemplate2'
p1
(dp2
S'elements'
p3
S''
p4
sS'name'
p5
g1
sS'weight'
p6
S'200 ng'
p7
sS'sequence'
p8
S'ATCGATCGATCGATCGATCGATCGGGATCCATCGATCGATCGATCGATCGATCGATCG'
p9
sS'material'
p10
S'dsDNA'
p11
sS'codon_set'
p12
S'standard'
p13
sS'owner'
p14
S'PVH'
p15
ssS'PlasmidTemplate'
p16
(dp17
g3
g4
sg5
g16
sg6
S'100 ng'
p18
sg8
S'ATCGATCGATCGATCGATCGATCGGGATCCATCGATCGATCGATCGATCGATCGATCG'
p19
sg10
S'dsDNA'
p20
sg12
S'standard'
p21
sg14
S'PVH'
p22
ss.